; Function Attrs: inlinehint mustprogress uwtable
define internal noalias noundef nonnull ptr @_ZZN8pybind116detail16type_caster_baseIZ35test_submodule_multiple_inheritanceRNS_7module_EE2C1E21make_copy_constructorIS4_vEEDTcmnw_T_piclsr3stdE7declvalIKS7_EEEtlPFPvPKvEEEPS8_ENUlSB_E_8__invokeESB_(ptr noundef readonly captures(none) %0) #13 align 2 {
  %2 = tail call noalias noundef nonnull dereferenceable(32) ptr @_Znwm(i64 noundef 32) #40
  %3 = getelementptr inbounds nuw i8, ptr %2, i64 16
  %4 = load ptr, ptr %0, align 8, !tbaa !1508
  %5 = getelementptr i8, ptr %4, i64 -24
  %6 = load i64, ptr %5, align 8
  %7 = getelementptr inbounds i8, ptr %0, i64 %6
  %8 = getelementptr i8, ptr %7, i64 8
  %.val.i.i = load i32, ptr %8, align 8, !tbaa !2798
  %9 = getelementptr inbounds nuw i8, ptr %2, i64 24
  store i32 %.val.i.i, ptr %9, align 8, !tbaa !2798
  store ptr getelementptr inbounds nuw inrange(-24, 16) (i8, ptr @_ZTVZ35test_submodule_multiple_inheritanceRN8pybind117module_EE2C1, i64 24), ptr %2, align 8, !tbaa !1508
  store ptr getelementptr inbounds nuw inrange(-24, 16) (i8, ptr @_ZTVZ35test_submodule_multiple_inheritanceRN8pybind117module_EE2C1, i64 64), ptr %3, align 8, !tbaa !1508
  %10 = getelementptr inbounds nuw i8, ptr %2, i64 8
  %11 = getelementptr inbounds nuw i8, ptr %0, i64 8
  %12 = load i32, ptr %11, align 8, !tbaa !2806
  store i32 %12, ptr %10, align 8, !tbaa !2806
  ret ptr %2
}